#include <math.h>
#include <stdio.h>
#include <stdlib.h>
#include <string.h>

int main(){
	int n,i,j;
	scanf("%d",&n);
	for(j=1;j<=100;j++){
		if(n%2==0){
			i=n/2;
			printf("%d/2=%d\n",n,i);
			n=i;
		}
		if(n%2==1&&n!=1){
			i=3*n+1;
			printf("%d*3+1=%d\n",n,i);
			n=i;
		}
		if(n==1){
			printf("End\n");
			break;
		}
		j=j;
	}
	return 0;
}