; ModuleID = '34/878.c'
source_filename = "34/878.c"
target datalayout = "e-m:e-p270:32:32-p271:32:32-p272:64:64-i64:64-f80:128-n8:16:32:64-S128"
target triple = "x86_64-pc-linux-gnu"

@.str = private unnamed_addr constant [3 x i8] c"%d\00", align 1
@.str.1 = private unnamed_addr constant [9 x i8] c"%d/2=%d\0A\00", align 1
@.str.2 = private unnamed_addr constant [11 x i8] c"%d*3+1=%d\0A\00", align 1
@.str.3 = private unnamed_addr constant [5 x i8] c"End\0A\00", align 1

; Function Attrs: noinline nounwind uwtable
define dso_local i32 @main() #0 {
  %1 = alloca i32, align 4
  %2 = alloca i32, align 4
  %3 = alloca i32, align 4
  %4 = alloca i32, align 4
  store i32 0, i32* %1, align 4
  %5 = call i32 (i8*, ...) @__isoc99_scanf(i8* getelementptr inbounds ([3 x i8], [3 x i8]* @.str, i64 0, i64 0), i32* %2)
  store i32 1, i32* %4, align 4
  br label %6

6:                                                ; preds = %42, %0
  %7 = load i32, i32* %4, align 4
  %8 = icmp sle i32 %7, 100
  br i1 %8, label %9, label %45

9:                                                ; preds = %6
  %10 = load i32, i32* %2, align 4
  %11 = srem i32 %10, 2
  %12 = icmp eq i32 %11, 0
  br i1 %12, label %13, label %20

13:                                               ; preds = %9
  %14 = load i32, i32* %2, align 4
  %15 = sdiv i32 %14, 2
  store i32 %15, i32* %3, align 4
  %16 = load i32, i32* %2, align 4
  %17 = load i32, i32* %3, align 4
  %18 = call i32 (i8*, ...) @printf(i8* getelementptr inbounds ([9 x i8], [9 x i8]* @.str.1, i64 0, i64 0), i32 %16, i32 %17)
  %19 = load i32, i32* %3, align 4
  store i32 %19, i32* %2, align 4
  br label %20

20:                                               ; preds = %13, %9
  %21 = load i32, i32* %2, align 4
  %22 = srem i32 %21, 2
  %23 = icmp eq i32 %22, 1
  br i1 %23, label %24, label %35

24:                                               ; preds = %20
  %25 = load i32, i32* %2, align 4
  %26 = icmp ne i32 %25, 1
  br i1 %26, label %27, label %35

27:                                               ; preds = %24
  %28 = load i32, i32* %2, align 4
  %29 = mul nsw i32 3, %28
  %30 = add nsw i32 %29, 1
  store i32 %30, i32* %3, align 4
  %31 = load i32, i32* %2, align 4
  %32 = load i32, i32* %3, align 4
  %33 = call i32 (i8*, ...) @printf(i8* getelementptr inbounds ([11 x i8], [11 x i8]* @.str.2, i64 0, i64 0), i32 %31, i32 %32)
  %34 = load i32, i32* %3, align 4
  store i32 %34, i32* %2, align 4
  br label %35

35:                                               ; preds = %27, %24, %20
  %36 = load i32, i32* %2, align 4
  %37 = icmp eq i32 %36, 1
  br i1 %37, label %38, label %40

38:                                               ; preds = %35
  %39 = call i32 (i8*, ...) @printf(i8* getelementptr inbounds ([5 x i8], [5 x i8]* @.str.3, i64 0, i64 0))
  br label %45

40:                                               ; preds = %35
  %41 = load i32, i32* %4, align 4
  store i32 %41, i32* %4, align 4
  br label %42

42:                                               ; preds = %40
  %43 = load i32, i32* %4, align 4
  %44 = add nsw i32 %43, 1
  store i32 %44, i32* %4, align 4
  br label %6

45:                                               ; preds = %38, %6
  ret i32 0
}

declare dso_local i32 @__isoc99_scanf(i8*, ...) #1

declare dso_local i32 @printf(i8*, ...) #1


!llvm.module.flags = !{!0}
!llvm.ident = !{!1}

!0 = !{i32 1, !"wchar_size", i32 4}
!1 = !{!"clang version 10.0.0-4ubuntu1 "}
