; ModuleID = 'source-C-CXX/33/878.c'
source_filename = "source-C-CXX/33/878.c"
target datalayout = "e-m:e-p270:32:32-p271:32:32-p272:64:64-i64:64-f80:128-n8:16:32:64-S128"
target triple = "x86_64-pc-linux-gnu"

@.str = private unnamed_addr constant [3 x i8] c"%d\00", align 1
@.str.1 = private unnamed_addr constant [9 x i8] c"%d/2=%d\0A\00", align 1
@.str.2 = private unnamed_addr constant [11 x i8] c"%d*3+1=%d\0A\00", align 1
@str = private unnamed_addr constant [4 x i8] c"End\00", align 1

; Function Attrs: nofree nounwind sspstrong uwtable
define dso_local i32 @main() local_unnamed_addr #0 {
  %1 = alloca i32, align 4
  %2 = bitcast i32* %1 to i8*
  call void @llvm.lifetime.start.p0i8(i64 4, i8* nonnull %2) #4
  %3 = call i32 (i8*, ...) @__isoc99_scanf(i8* getelementptr inbounds ([3 x i8], [3 x i8]* @.str, i64 0, i64 0), i32* nonnull %1)
  %4 = load i32, i32* %1, align 4, !tbaa !5
  br label %8

5:                                                ; preds = %26
  %6 = add nuw nsw i32 %10, 1
  %7 = icmp eq i32 %6, 101
  br i1 %7, label %31, label %8, !llvm.loop !9

8:                                                ; preds = %0, %5
  %9 = phi i32 [ %4, %0 ], [ %27, %5 ]
  %10 = phi i32 [ 1, %0 ], [ %6, %5 ]
  %11 = and i32 %9, 1
  %12 = icmp eq i32 %11, 0
  br i1 %12, label %13, label %16

13:                                               ; preds = %8
  %14 = sdiv i32 %9, 2
  %15 = call i32 (i8*, ...) @printf(i8* nonnull dereferenceable(1) getelementptr inbounds ([9 x i8], [9 x i8]* @.str.1, i64 0, i64 0), i32 %9, i32 %14)
  store i32 %14, i32* %1, align 4, !tbaa !5
  br label %16

16:                                               ; preds = %13, %8
  %17 = phi i32 [ %14, %13 ], [ %9, %8 ]
  %18 = srem i32 %17, 2
  %19 = icmp eq i32 %18, 1
  %20 = icmp ne i32 %17, 1
  %21 = and i1 %20, %19
  br i1 %21, label %22, label %26

22:                                               ; preds = %16
  %23 = mul nsw i32 %17, 3
  %24 = add nsw i32 %23, 1
  %25 = call i32 (i8*, ...) @printf(i8* nonnull dereferenceable(1) getelementptr inbounds ([11 x i8], [11 x i8]* @.str.2, i64 0, i64 0), i32 %17, i32 %24)
  store i32 %24, i32* %1, align 4, !tbaa !5
  br label %26

26:                                               ; preds = %22, %16
  %27 = phi i32 [ %24, %22 ], [ %17, %16 ]
  %28 = icmp eq i32 %27, 1
  br i1 %28, label %29, label %5

29:                                               ; preds = %26
  %30 = call i32 @puts(i8* nonnull dereferenceable(1) getelementptr inbounds ([4 x i8], [4 x i8]* @str, i64 0, i64 0))
  br label %31

31:                                               ; preds = %5, %29
  call void @llvm.lifetime.end.p0i8(i64 4, i8* nonnull %2) #4
  ret i32 0
}

; Function Attrs: argmemonly mustprogress nofree nosync nounwind willreturn
declare void @llvm.lifetime.start.p0i8(i64 immarg, i8* nocapture) #1

; Function Attrs: nofree nounwind
declare noundef i32 @__isoc99_scanf(i8* nocapture noundef readonly, ...) local_unnamed_addr #2

; Function Attrs: nofree nounwind
declare noundef i32 @printf(i8* nocapture noundef readonly, ...) local_unnamed_addr #2

; Function Attrs: argmemonly mustprogress nofree nosync nounwind willreturn
declare void @llvm.lifetime.end.p0i8(i64 immarg, i8* nocapture) #1

; Function Attrs: nofree nounwind
declare noundef i32 @puts(i8* nocapture noundef readonly) local_unnamed_addr #3


!llvm.module.flags = !{!0, !1, !2, !3}
!llvm.ident = !{!4}

!0 = !{i32 1, !"wchar_size", i32 4}
!1 = !{i32 7, !"PIC Level", i32 2}
!2 = !{i32 7, !"PIE Level", i32 2}
!3 = !{i32 7, !"uwtable", i32 1}
!4 = !{!"clang version 13.0.0"}
!5 = !{!6, !6, i64 0}
!6 = !{!"int", !7, i64 0}
!7 = !{!"omnipotent char", !8, i64 0}
!8 = !{!"Simple C/C++ TBAA"}
!9 = distinct !{!9, !10}
!10 = !{!"llvm.loop.mustprogress"}
